target datalayout = "e-m:e-p270:32:32-p271:32:32-p272:64:64-i64:64-i128:128-f80:128-n8:16:32:64-S128"
target triple = "x86_64-pc-linux-gnu"

%struct.strbuf = type { i64, i64, ptr }
%struct.stash_info = type { %struct.object_id, %struct.object_id, %struct.object_id, %struct.object_id, %struct.object_id, %struct.object_id, %struct.object_id, %struct.object_id, %struct.strbuf, i32, i32 }
%struct.object_id = type { [32 x i8], i32 }

@the_repository = external global ptr, align 8
@ref_stash = internal constant [11 x i8] c"refs/stash\00", align 1
@.str.25 = private unnamed_addr constant [1 x i8] zeroinitializer, align 1
@git_gettext_enabled = external global i32, align 4
@.str.65 = private unnamed_addr constant [16 x i8] c"Dropped %s (%s)\00", align 1
@.str.66 = private unnamed_addr constant [31 x i8] c"%s: Could not drop stash entry\00", align 1

; Function Attrs: nounwind uwtable
define internal i32 @do_clear_stash() #0 {
  %1 = alloca i32, align 4
  %2 = alloca %struct.object_id, align 4
  %3 = alloca i32, align 4
  call void @llvm.lifetime.start.p0(i64 36, ptr %2) #9
  %4 = load ptr, ptr @the_repository, align 8, !tbaa !13
  %5 = call i32 @repo_get_oid(ptr noundef %4, ptr noundef @ref_stash, ptr noundef %2)
  %6 = icmp ne i32 %5, 0
  br i1 %6, label %7, label %8

7:                                                ; preds = %0
  store i32 0, ptr %1, align 4
  store i32 1, ptr %3, align 4
  br label %12

8:                                                ; preds = %0
  %9 = load ptr, ptr @the_repository, align 8, !tbaa !13
  %10 = call ptr @get_main_ref_store(ptr noundef %9)
  %11 = call i32 @refs_delete_ref(ptr noundef %10, ptr noundef null, ptr noundef @ref_stash, ptr noundef %2, i32 noundef 0)
  store i32 %11, ptr %1, align 4
  store i32 1, ptr %3, align 4
  br label %12

12:                                               ; preds = %8, %7
  call void @llvm.lifetime.end.p0(i64 36, ptr %2) #9
  %13 = load i32, ptr %1, align 4
  ret i32 %13
}

; Function Attrs: nounwind uwtable
define internal i32 @reflog_is_empty(ptr noundef %0) #0 {
  %2 = alloca ptr, align 8
  store ptr %0, ptr %2, align 8, !tbaa !11
  %3 = load ptr, ptr @the_repository, align 8, !tbaa !13
  %4 = call ptr @get_main_ref_store(ptr noundef %3)
  %5 = load ptr, ptr %2, align 8, !tbaa !11
  %6 = call i32 @refs_for_each_reflog_ent(ptr noundef %4, ptr noundef %5, ptr noundef @reject_reflog_ent, ptr noundef null)
  %7 = icmp ne i32 %6, 0
  %8 = xor i1 %7, true
  %9 = zext i1 %8 to i32
  ret i32 %9
}

; Function Attrs: inlinehint nounwind uwtable
define internal i32 @const_error() #5 {
  ret i32 -1
}

; Function Attrs: inlinehint nounwind uwtable
define internal ptr @_(ptr noundef %0) #5 {
  %2 = alloca ptr, align 8
  %3 = alloca ptr, align 8
  store ptr %0, ptr %3, align 8, !tbaa !11
  %4 = load ptr, ptr %3, align 8, !tbaa !11
  %5 = load i8, ptr %4, align 1, !tbaa !58
  %6 = icmp ne i8 %5, 0
  br i1 %6, label %8, label %7

7:                                                ; preds = %1
  store ptr @.str.25, ptr %2, align 8
  br label %16

8:                                                ; preds = %1
  %9 = load i32, ptr @git_gettext_enabled, align 4, !tbaa !4
  %10 = icmp ne i32 %9, 0
  br i1 %10, label %13, label %11

11:                                               ; preds = %8
  %12 = load ptr, ptr %3, align 8, !tbaa !11
  store ptr %12, ptr %2, align 8
  br label %16

13:                                               ; preds = %8
  %14 = load ptr, ptr %3, align 8, !tbaa !11
  %15 = call ptr @dcgettext(ptr noundef null, ptr noundef %14, i32 noundef 5) #9
  store ptr %15, ptr %2, align 8
  br label %16

16:                                               ; preds = %13, %11, %7
  %17 = load ptr, ptr %2, align 8
  ret ptr %17
}

; Function Attrs: nounwind uwtable
define internal i32 @do_drop_stash(ptr noundef %0, i32 noundef %1) #0 {
  %3 = alloca i32, align 4
  %4 = alloca ptr, align 8
  %5 = alloca i32, align 4
  store ptr %0, ptr %4, align 8, !tbaa !109
  store i32 %1, ptr %5, align 4, !tbaa !4
  %6 = load ptr, ptr %4, align 8, !tbaa !109
  %7 = getelementptr inbounds nuw %struct.stash_info, ptr %6, i32 0, i32 8
  %8 = getelementptr inbounds nuw %struct.strbuf, ptr %7, i32 0, i32 2
  %9 = load ptr, ptr %8, align 8, !tbaa !113
  %10 = call i32 @reflog_delete(ptr noundef %9, i32 noundef 6, i32 noundef 0)
  %11 = icmp ne i32 %10, 0
  br i1 %11, label %26, label %12

12:                                               ; preds = %2
  %13 = load i32, ptr %5, align 4, !tbaa !4
  %14 = icmp ne i32 %13, 0
  br i1 %14, label %25, label %15

15:                                               ; preds = %12
  %16 = call ptr @_(ptr noundef @.str.65)
  %17 = load ptr, ptr %4, align 8, !tbaa !109
  %18 = getelementptr inbounds nuw %struct.stash_info, ptr %17, i32 0, i32 8
  %19 = getelementptr inbounds nuw %struct.strbuf, ptr %18, i32 0, i32 2
  %20 = load ptr, ptr %19, align 8, !tbaa !113
  %21 = load ptr, ptr %4, align 8, !tbaa !109
  %22 = getelementptr inbounds nuw %struct.stash_info, ptr %21, i32 0, i32 0
  %23 = call ptr @oid_to_hex(ptr noundef %22)
  %24 = call i32 (ptr, ...) @printf_ln(ptr noundef %16, ptr noundef %20, ptr noundef %23)
  br label %25

25:                                               ; preds = %15, %12
  br label %34

26:                                               ; preds = %2
  %27 = call ptr @_(ptr noundef @.str.66)
  %28 = load ptr, ptr %4, align 8, !tbaa !109
  %29 = getelementptr inbounds nuw %struct.stash_info, ptr %28, i32 0, i32 8
  %30 = getelementptr inbounds nuw %struct.strbuf, ptr %29, i32 0, i32 2
  %31 = load ptr, ptr %30, align 8, !tbaa !113
  %32 = call i32 (ptr, ...) @error(ptr noundef %27, ptr noundef %31)
  %33 = call i32 @const_error()
  store i32 %33, ptr %3, align 4
  br label %40

34:                                               ; preds = %25
  %35 = call i32 @reflog_is_empty(ptr noundef @ref_stash)
  %36 = icmp ne i32 %35, 0
  br i1 %36, label %37, label %39

37:                                               ; preds = %34
  %38 = call i32 @do_clear_stash()
  br label %39

39:                                               ; preds = %37, %34
  store i32 0, ptr %3, align 4
  br label %40

40:                                               ; preds = %39, %26
  %41 = load i32, ptr %3, align 4
  ret i32 %41
}