; Function Attrs: nounwind uwtable
define internal fastcc range(i32 -1, 1) i32 @do_drop_stash(ptr noundef nonnull %0, i32 noundef %1) unnamed_addr #0 {
  %3 = alloca %struct.object_id, align 4
  %4 = getelementptr inbounds nuw i8, ptr %0, i64 304
  %5 = load ptr, ptr %4, align 8, !tbaa !51
  %6 = tail call i32 @reflog_delete(ptr noundef %5, i32 noundef 6, i32 noundef 0) #15
  %.not = icmp eq i32 %6, 0
  br i1 %.not, label %7, label %15

7:                                                ; preds = %2
  %.not5 = icmp eq i32 %1, 0
  br i1 %.not5, label %8, label %21

8:                                                ; preds = %7
  %9 = load i32, ptr @git_gettext_enabled, align 4, !tbaa !42
  %.not4.i = icmp eq i32 %9, 0
  br i1 %.not4.i, label %_.exit, label %10

10:                                               ; preds = %8
  %11 = tail call ptr @dcgettext(ptr noundef null, ptr noundef nonnull @.str.65, i32 noundef 5) #15
  br label %_.exit

_.exit:                                           ; preds = %8, %10
  %.0.i = phi ptr [ %11, %10 ], [ @.str.65, %8 ]
  %12 = load ptr, ptr %4, align 8, !tbaa !51
  %13 = tail call ptr @oid_to_hex(ptr noundef nonnull %0) #15
  %14 = tail call i32 (ptr, ...) @printf_ln(ptr noundef %.0.i, ptr noundef %12, ptr noundef %13) #15
  br label %21

15:                                               ; preds = %2
  %16 = load i32, ptr @git_gettext_enabled, align 4, !tbaa !42
  %.not4.i7 = icmp eq i32 %16, 0
  br i1 %.not4.i7, label %_.exit9, label %17

17:                                               ; preds = %15
  %18 = tail call ptr @dcgettext(ptr noundef null, ptr noundef nonnull @.str.66, i32 noundef 5) #15
  br label %_.exit9

_.exit9:                                          ; preds = %15, %17
  %.0.i8 = phi ptr [ %18, %17 ], [ @.str.66, %15 ]
  %19 = load ptr, ptr %4, align 8, !tbaa !51
  %20 = tail call i32 (ptr, ...) @error(ptr noundef %.0.i8, ptr noundef %19) #15
  br label %32

21:                                               ; preds = %7, %_.exit
  %22 = load ptr, ptr @the_repository, align 8, !tbaa !18
  %23 = tail call ptr @get_main_ref_store(ptr noundef %22) #15
  %24 = tail call i32 @refs_for_each_reflog_ent(ptr noundef %23, ptr noundef nonnull @ref_stash, ptr noundef nonnull @reject_reflog_ent, ptr noundef null) #15
  %.not.i.not = icmp eq i32 %24, 0
  br i1 %.not.i.not, label %25, label %32

25:                                               ; preds = %21
  call void @llvm.lifetime.start.p0(i64 36, ptr nonnull %3) #15
  %26 = load ptr, ptr @the_repository, align 8, !tbaa !18
  %27 = call i32 @repo_get_oid(ptr noundef %26, ptr noundef nonnull @ref_stash, ptr noundef nonnull %3) #15
  %.not.i10 = icmp eq i32 %27, 0
  br i1 %.not.i10, label %28, label %do_clear_stash.exit

28:                                               ; preds = %25
  %29 = load ptr, ptr @the_repository, align 8, !tbaa !18
  %30 = call ptr @get_main_ref_store(ptr noundef %29) #15
  %31 = call i32 @refs_delete_ref(ptr noundef %30, ptr noundef null, ptr noundef nonnull @ref_stash, ptr noundef nonnull %3, i32 noundef 0) #15
  br label %do_clear_stash.exit

do_clear_stash.exit:                              ; preds = %25, %28
  call void @llvm.lifetime.end.p0(i64 36, ptr nonnull %3) #15
  br label %32

32:                                               ; preds = %21, %do_clear_stash.exit, %_.exit9
  %.0 = phi i32 [ -1, %_.exit9 ], [ 0, %do_clear_stash.exit ], [ 0, %21 ]
  ret i32 %.0
}